target datalayout = "e-m:e-p270:32:32-p271:32:32-p272:64:64-i64:64-i128:128-f80:128-n8:16:32:64-S128"
target triple = "x86_64-pc-linux-gnu"

; Function Attrs: inlinehint nounwind uwtable
define internal i32 @strtol_i(ptr noundef %0, i32 noundef %1, ptr noundef %2) #3 {
  %4 = alloca i32, align 4
  %5 = alloca ptr, align 8
  %6 = alloca i32, align 4
  %7 = alloca ptr, align 8
  %8 = alloca i64, align 8
  %9 = alloca ptr, align 8
  %10 = alloca i32, align 4
  store ptr %0, ptr %5, align 8, !tbaa !11
  store i32 %1, ptr %6, align 4, !tbaa !4
  store ptr %2, ptr %7, align 8, !tbaa !27
  call void @llvm.lifetime.start.p0(i64 8, ptr %8) #13
  call void @llvm.lifetime.start.p0(i64 8, ptr %9) #13
  %11 = call ptr @__errno_location() #16
  store i32 0, ptr %11, align 4, !tbaa !4
  %12 = load ptr, ptr %5, align 8, !tbaa !11
  %13 = load i32, ptr %6, align 4, !tbaa !4
  %14 = call i64 @strtol(ptr noundef %12, ptr noundef %9, i32 noundef %13) #13
  store i64 %14, ptr %8, align 8, !tbaa !15
  %15 = call ptr @__errno_location() #16
  %16 = load i32, ptr %15, align 4, !tbaa !4
  %17 = icmp ne i32 %16, 0
  br i1 %17, label %33, label %18

18:                                               ; preds = %3
  %19 = load ptr, ptr %9, align 8, !tbaa !11
  %20 = load i8, ptr %19, align 1, !tbaa !17
  %21 = sext i8 %20 to i32
  %22 = icmp ne i32 %21, 0
  br i1 %22, label %33, label %23

23:                                               ; preds = %18
  %24 = load ptr, ptr %9, align 8, !tbaa !11
  %25 = load ptr, ptr %5, align 8, !tbaa !11
  %26 = icmp eq ptr %24, %25
  br i1 %26, label %33, label %27

27:                                               ; preds = %23
  %28 = load i64, ptr %8, align 8, !tbaa !15
  %29 = trunc i64 %28 to i32
  %30 = sext i32 %29 to i64
  %31 = load i64, ptr %8, align 8, !tbaa !15
  %32 = icmp ne i64 %30, %31
  br i1 %32, label %33, label %34

33:                                               ; preds = %27, %23, %18, %3
  store i32 -1, ptr %4, align 4
  store i32 1, ptr %10, align 4
  br label %38

34:                                               ; preds = %27
  %35 = load i64, ptr %8, align 8, !tbaa !15
  %36 = trunc i64 %35 to i32
  %37 = load ptr, ptr %7, align 8, !tbaa !27
  store i32 %36, ptr %37, align 4, !tbaa !4
  store i32 0, ptr %4, align 4
  store i32 1, ptr %10, align 4
  br label %38

38:                                               ; preds = %34, %33
  call void @llvm.lifetime.end.p0(i64 8, ptr %9) #13
  call void @llvm.lifetime.end.p0(i64 8, ptr %8) #13
  %39 = load i32, ptr %4, align 4
  ret i32 %39
}