; Function Attrs: inlinehint mustprogress nofree nounwind willreturn uwtable
define internal fastcc range(i32 -1, 1) i32 @strtol_i(ptr noundef %0, ptr noundef nonnull writeonly captures(none) %1) unnamed_addr #8 {
  %3 = alloca ptr, align 8
  call void @llvm.lifetime.start.p0(i64 8, ptr nonnull %3) #21
  %4 = tail call ptr @__errno_location() #24
  store i32 0, ptr %4, align 4, !tbaa !12
  %5 = call i64 @strtol(ptr noundef %0, ptr noundef nonnull %3, i32 noundef 10) #21
  %6 = load i32, ptr %4, align 4, !tbaa !12
  %.not = icmp eq i32 %6, 0
  br i1 %.not, label %7, label %14

7:                                                ; preds = %2
  %8 = load ptr, ptr %3, align 8, !tbaa !4
  %9 = load i8, ptr %8, align 1, !tbaa !9
  %.not7 = icmp eq i8 %9, 0
  %10 = icmp ne ptr %8, %0
  %or.cond.not11 = and i1 %10, %.not7
  %11 = add i64 %5, 2147483648
  %.not8 = icmp ult i64 %11, 4294967296
  %or.cond9 = select i1 %or.cond.not11, i1 %.not8, i1 false
  br i1 %or.cond9, label %12, label %14

12:                                               ; preds = %7
  %13 = trunc i64 %5 to i32
  store i32 %13, ptr %1, align 4, !tbaa !12
  br label %14

14:                                               ; preds = %2, %7, %12
  %.0 = phi i32 [ 0, %12 ], [ -1, %7 ], [ -1, %2 ]
  call void @llvm.lifetime.end.p0(i64 8, ptr nonnull %3) #21
  ret i32 %.0
}